; Function Attrs: mustprogress nounwind uwtable
define dso_local noundef zeroext i1 @_ZNK5clang4Decl11isOutOfLineEv(ptr nocapture noundef nonnull readonly align 8 dereferenceable(33) %0) unnamed_addr #2 align 2 {
  %2 = getelementptr inbounds nuw i8, ptr %0, i64 16
  %.0.copyload.i.i.i.i.i.i.i.i.i.i.i = load i64, ptr %2, align 8
  %3 = and i64 %.0.copyload.i.i.i.i.i.i.i.i.i.i.i, 4
  %4 = icmp eq i64 %3, 0
  %5 = and i64 %.0.copyload.i.i.i.i.i.i.i.i.i.i.i, -8
  %6 = inttoptr i64 %5 to ptr
  br i1 %4, label %_ZNK5clang4Decl14getDeclContextEv.exit, label %7

7:                                                ; preds = %1
  %8 = getelementptr inbounds nuw i8, ptr %6, i64 8
  %9 = load ptr, ptr %8, align 8
  %10 = load ptr, ptr %6, align 8
  br label %_ZNK5clang4Decl14getDeclContextEv.exit

_ZNK5clang4Decl14getDeclContextEv.exit:           ; preds = %1, %7
  %.0.i.i4 = phi ptr [ %9, %7 ], [ %6, %1 ]
  %.0.i.i2 = phi ptr [ %10, %7 ], [ %6, %1 ]
  %.not.i = icmp eq ptr %.0.i.i2, null
  br i1 %.not.i, label %_ZNK5clang11DeclContext6EqualsEPKS0_.exit, label %11

11:                                               ; preds = %_ZNK5clang4Decl14getDeclContextEv.exit
  %12 = tail call noundef ptr @_ZN5clang11DeclContext17getPrimaryContextEv(ptr noundef nonnull align 8 dereferenceable(32) %.0.i.i4) #27
  %13 = tail call noundef ptr @_ZN5clang11DeclContext17getPrimaryContextEv(ptr noundef nonnull align 8 dereferenceable(32) %.0.i.i2) #27
  %14 = icmp ne ptr %12, %13
  br label %_ZNK5clang11DeclContext6EqualsEPKS0_.exit

_ZNK5clang11DeclContext6EqualsEPKS0_.exit:        ; preds = %_ZNK5clang4Decl14getDeclContextEv.exit, %11
  %15 = phi i1 [ true, %_ZNK5clang4Decl14getDeclContextEv.exit ], [ %14, %11 ]
  ret i1 %15
}